target datalayout = "e-m:e-p270:32:32-p271:32:32-p272:64:64-i64:64-i128:128-f80:128-n8:16:32:64-S128"
target triple = "x86_64-pc-linux-gnu"

@.str.11 = private unnamed_addr constant [8 x i8] c"Descent\00", align 1
@.str.12 = private unnamed_addr constant [3 x i8] c"GN\00", align 1
@.str.13 = private unnamed_addr constant [7 x i8] c"Dogleg\00", align 1
@.str.14 = private unnamed_addr constant [10 x i8] c"Undefined\00", align 1

; Function Attrs: mustprogress nounwind uwtable
define noundef ptr @_ZN3g2o27OptimizationAlgorithmDogleg12stepType2StrEi(i32 noundef %0) #1 align 2 {
  %2 = alloca ptr, align 8
  %3 = alloca i32, align 4
  store i32 %0, ptr %3, align 4, !tbaa !55
  %4 = load i32, ptr %3, align 4, !tbaa !55
  switch i32 %4, label %8 [
    i32 1, label %5
    i32 2, label %6
    i32 3, label %7
  ]

5:                                                ; preds = %1
  store ptr @.str.11, ptr %2, align 8
  br label %9

6:                                                ; preds = %1
  store ptr @.str.12, ptr %2, align 8
  br label %9

7:                                                ; preds = %1
  store ptr @.str.13, ptr %2, align 8
  br label %9

8:                                                ; preds = %1
  store ptr @.str.14, ptr %2, align 8
  br label %9

9:                                                ; preds = %8, %7, %6, %5
  %10 = load ptr, ptr %2, align 8
  ret ptr %10
}